#include <math.h>
#include <stdio.h>
#include <stdlib.h>
#include <string.h>

int main(){
	double k;
	scanf("%lf",&k);
	char qian[501];
	char hou[501];
	scanf("%s%s",&qian,&hou);

	int i,s=0;
	if(strlen(qian)!=strlen(hou)){
		s=1;
	}
	int m=0;
	for(i=0;i<strlen(qian);i++){
		if((qian[i]!='A'&&qian[i]!='T'&&qian[i]!='G'&&qian[i]!='C')||(hou[i]!='A'&&hou[i]!='T'&&hou[i]!='G'&&hou[i]!='C')){
			s=1;
		}
	}
	if(s==1){
		printf("error");
	}else if(s==0){
		for(i=0;i<strlen(qian);i++){
			if(qian[i]==hou[i]){
				m++;
			}
		}
		if(1.0*m/strlen(qian)>k){
			printf("yes");
		}else if(1.0*m/strlen(qian)<=k){
			printf("no");
		}
	}
	return 0;
}